; Function Attrs: mustprogress uwtable
define void @_ZN5boost6fibers15recursive_mutex6unlockEv(ptr noundef nonnull align 8 dereferenceable(40) %0) local_unnamed_addr #3 align 2 personality ptr @__gxx_personality_v0 {
  %2 = tail call noundef ptr @_ZN5boost6fibers7context6activeEv() #19
  tail call void @_ZN5boost6fibers6detail13spinlock_ttas4lockEv(ptr noundef nonnull align 4 dereferenceable(4) %0) #19
  %3 = getelementptr inbounds nuw i8, ptr %0, i64 24
  %4 = load ptr, ptr %3, align 8, !tbaa !10
  %.not = icmp eq ptr %2, %4
  br i1 %.not, label %13, label %5, !prof !27

5:                                                ; preds = %1
  %6 = tail call ptr @__cxa_allocate_exception(i64 32) #19
  %7 = tail call noundef nonnull align 8 dereferenceable(8) ptr @_ZNSt3_V216generic_categoryEv() #21
  invoke void @_ZNSt12system_errorC2ESt10error_codePKc(ptr noundef nonnull align 8 dereferenceable(32) %6, i32 1, ptr nonnull %7, ptr noundef nonnull @.str)
          to label %8 unwind label %9

8:                                                ; preds = %5
  store ptr getelementptr inbounds inrange(-16, 24) (i8, ptr @_ZTVN5boost6fibers10lock_errorE, i64 16), ptr %6, align 8, !tbaa !28
  invoke void @__cxa_throw(ptr nonnull %6, ptr nonnull @_ZTIN5boost6fibers10lock_errorE, ptr nonnull @_ZNSt12system_errorD2Ev) #22
          to label %20 unwind label %11

9:                                                ; preds = %5
  %10 = landingpad { ptr, i32 }
          cleanup
  tail call void @__cxa_free_exception(ptr %6) #19
  br label %_ZNSt11unique_lockIN5boost6fibers6detail13spinlock_ttasEED2Ev.exit6

11:                                               ; preds = %18, %8
  %12 = landingpad { ptr, i32 }
          cleanup
  br label %_ZNSt11unique_lockIN5boost6fibers6detail13spinlock_ttasEED2Ev.exit6

13:                                               ; preds = %1
  %14 = getelementptr inbounds nuw i8, ptr %0, i64 32
  %15 = load i64, ptr %14, align 8, !tbaa !24
  %16 = add i64 %15, -1
  store i64 %16, ptr %14, align 8, !tbaa !24
  %17 = icmp eq i64 %16, 0
  br i1 %17, label %18, label %_ZNSt11unique_lockIN5boost6fibers6detail13spinlock_ttasEED2Ev.exit

18:                                               ; preds = %13
  store ptr null, ptr %3, align 8, !tbaa !10
  %19 = getelementptr inbounds nuw i8, ptr %0, i64 8
  invoke void @_ZN5boost6fibers10wait_queue10notify_oneEv(ptr noundef nonnull align 8 dereferenceable(16) %19)
          to label %_ZNSt11unique_lockIN5boost6fibers6detail13spinlock_ttasEED2Ev.exit unwind label %11

_ZNSt11unique_lockIN5boost6fibers6detail13spinlock_ttasEED2Ev.exit: ; preds = %13, %18
  store atomic i32 1, ptr %0 release, align 8
  ret void

_ZNSt11unique_lockIN5boost6fibers6detail13spinlock_ttasEED2Ev.exit6: ; preds = %9, %11
  %.pn = phi { ptr, i32 } [ %12, %11 ], [ %10, %9 ]
  store atomic i32 1, ptr %0 release, align 8
  resume { ptr, i32 } %.pn

20:                                               ; preds = %8
  unreachable
}